target datalayout = "e-m:e-p270:32:32-p271:32:32-p272:64:64-i64:64-i128:128-f80:128-n8:16:32:64-S128"
target triple = "x86_64-pc-linux-gnu"

%class.Node.base = type <{ ptr, ptr, ptr, i32, i32, i32, i32, i32, i32, i32 }>
%class.TypeNode = type { %class.Node.base, ptr }
%class.PhiNode = type { %class.TypeNode, ptr, i32, i32, i32, i32 }

; Function Attrs: mustprogress nounwind uwtable
define hidden noundef zeroext i1 @_ZNK7PhiNode3cmpERK4Node(ptr noundef nonnull align 8 dereferenceable(88) %0, ptr noundef nonnull align 8 dereferenceable(52) %1) unnamed_addr #1 align 2 {
  %3 = alloca ptr, align 8
  %4 = alloca ptr, align 8
  store ptr %0, ptr %3, align 8
  store ptr %1, ptr %4, align 8
  %5 = load ptr, ptr %3, align 8
  %6 = load ptr, ptr %4, align 8
  %7 = call noundef zeroext i1 @_ZNK8TypeNode3cmpERK4Node(ptr noundef nonnull align 8 dereferenceable(64) %5, ptr noundef nonnull align 8 dereferenceable(52) %6)
  br i1 %7, label %8, label %15

8:                                                ; preds = %2
  %9 = getelementptr inbounds %class.PhiNode, ptr %5, i32 0, i32 1
  %10 = load ptr, ptr %9, align 8
  %11 = load ptr, ptr %4, align 8
  %12 = getelementptr inbounds %class.PhiNode, ptr %11, i32 0, i32 1
  %13 = load ptr, ptr %12, align 8
  %14 = icmp eq ptr %10, %13
  br label %15

15:                                               ; preds = %8, %2
  %16 = phi i1 [ false, %2 ], [ %14, %8 ]
  ret i1 %16
}