; Function Attrs: mustprogress nounwind uwtable
define hidden noundef zeroext i1 @_ZNK7PhiNode3cmpERK4Node(ptr noundef nonnull align 8 dereferenceable(88) %0, ptr noundef nonnull align 8 dereferenceable(52) %1) unnamed_addr #2 align 2 {
  %3 = tail call noundef zeroext i1 @_ZNK8TypeNode3cmpERK4Node(ptr noundef nonnull align 8 dereferenceable(64) %0, ptr noundef nonnull align 8 dereferenceable(52) %1) #10
  br i1 %3, label %4, label %10

4:                                                ; preds = %2
  %5 = getelementptr inbounds i8, ptr %0, i64 64
  %6 = load ptr, ptr %5, align 8
  %7 = getelementptr inbounds i8, ptr %1, i64 64
  %8 = load ptr, ptr %7, align 8
  %9 = icmp eq ptr %6, %8
  br label %10

10:                                               ; preds = %4, %2
  %11 = phi i1 [ false, %2 ], [ %9, %4 ]
  ret i1 %11
}